target datalayout = "e-m:e-p270:32:32-p271:32:32-p272:64:64-i64:64-i128:128-f80:128-n8:16:32:64-S128"
target triple = "x86_64-pc-linux-gnu"

%"struct.vcpkg::StringView" = type { ptr, i64 }

@.str.88 = private unnamed_addr constant [5 x i8] c"/a/b\00", align 1
@.str.89 = private unnamed_addr constant [4 x i8] c"c/d\00", align 1
@.str.90 = private unnamed_addr constant [9 x i8] c"/a/b/c/d\00", align 1
@.str.91 = private unnamed_addr constant [4 x i8] c"a/b\00", align 1
@.str.92 = private unnamed_addr constant [8 x i8] c"a/b/c/d\00", align 1
@.str.93 = private unnamed_addr constant [5 x i8] c"/c/d\00", align 1
@.str.94 = private unnamed_addr constant [7 x i8] c"C:/a/b\00", align 1
@.str.95 = private unnamed_addr constant [11 x i8] c"C:/a/b/c/d\00", align 1
@.str.96 = private unnamed_addr constant [6 x i8] c"C:a/b\00", align 1
@.str.97 = private unnamed_addr constant [10 x i8] c"C:a/b/c/d\00", align 1
@.str.98 = private unnamed_addr constant [7 x i8] c"D:/c/d\00", align 1
@.str.99 = private unnamed_addr constant [14 x i8] c"C:/a/b/D:/c/d\00", align 1
@.str.100 = private unnamed_addr constant [6 x i8] c"D:c/d\00", align 1
@.str.101 = private unnamed_addr constant [13 x i8] c"C:/a/b/D:c/d\00", align 1
@.str.102 = private unnamed_addr constant [6 x i8] c"C:c/d\00", align 1
@.str.103 = private unnamed_addr constant [13 x i8] c"C:/a/b/C:c/d\00", align 1

; Function Attrs: mustprogress nounwind uwtable
define linkonce_odr dso_local void @_ZN5vcpkg10StringViewC2EPKc(ptr noundef nonnull align 8 dereferenceable(16) %0, ptr noundef %1) unnamed_addr #6 comdat align 2 {
  %3 = alloca ptr, align 8
  %4 = alloca ptr, align 8
  store ptr %0, ptr %3, align 8, !tbaa !95
  store ptr %1, ptr %4, align 8, !tbaa !9
  %5 = load ptr, ptr %3, align 8
  %6 = getelementptr inbounds nuw %"struct.vcpkg::StringView", ptr %5, i32 0, i32 0
  %7 = load ptr, ptr %4, align 8, !tbaa !9
  store ptr %7, ptr %6, align 8, !tbaa !97
  %8 = getelementptr inbounds nuw %"struct.vcpkg::StringView", ptr %5, i32 0, i32 1
  %9 = load ptr, ptr %4, align 8, !tbaa !9
  %10 = call i64 @strlen(ptr noundef %9) #21
  store i64 %10, ptr %8, align 8, !tbaa !99
  ret void
}

; Function Attrs: mustprogress uwtable
define internal void @_ZL19C_A_T_C_H_T_E_S_T_8v() #4 {
  %1 = alloca %"struct.vcpkg::StringView", align 8
  %2 = alloca %"struct.vcpkg::StringView", align 8
  %3 = alloca %"struct.vcpkg::StringView", align 8
  %4 = alloca %"struct.vcpkg::StringView", align 8
  %5 = alloca %"struct.vcpkg::StringView", align 8
  %6 = alloca %"struct.vcpkg::StringView", align 8
  %7 = alloca %"struct.vcpkg::StringView", align 8
  %8 = alloca %"struct.vcpkg::StringView", align 8
  %9 = alloca %"struct.vcpkg::StringView", align 8
  %10 = alloca %"struct.vcpkg::StringView", align 8
  %11 = alloca %"struct.vcpkg::StringView", align 8
  %12 = alloca %"struct.vcpkg::StringView", align 8
  %13 = alloca %"struct.vcpkg::StringView", align 8
  %14 = alloca %"struct.vcpkg::StringView", align 8
  %15 = alloca %"struct.vcpkg::StringView", align 8
  %16 = alloca %"struct.vcpkg::StringView", align 8
  %17 = alloca %"struct.vcpkg::StringView", align 8
  %18 = alloca %"struct.vcpkg::StringView", align 8
  %19 = alloca %"struct.vcpkg::StringView", align 8
  %20 = alloca %"struct.vcpkg::StringView", align 8
  %21 = alloca %"struct.vcpkg::StringView", align 8
  %22 = alloca %"struct.vcpkg::StringView", align 8
  %23 = alloca %"struct.vcpkg::StringView", align 8
  %24 = alloca %"struct.vcpkg::StringView", align 8
  %25 = alloca %"struct.vcpkg::StringView", align 8
  %26 = alloca %"struct.vcpkg::StringView", align 8
  %27 = alloca %"struct.vcpkg::StringView", align 8
  %28 = alloca %"struct.vcpkg::StringView", align 8
  %29 = alloca %"struct.vcpkg::StringView", align 8
  %30 = alloca %"struct.vcpkg::StringView", align 8
  call void @_ZN5vcpkg10StringViewC2EPKc(ptr noundef nonnull align 8 dereferenceable(16) %1, ptr noundef @.str.88) #3
  call void @_ZN5vcpkg10StringViewC2EPKc(ptr noundef nonnull align 8 dereferenceable(16) %2, ptr noundef @.str.89) #3
  call void @_ZN5vcpkg10StringViewC2EPKc(ptr noundef nonnull align 8 dereferenceable(16) %3, ptr noundef @.str.90) #3
  %31 = getelementptr inbounds nuw { ptr, i64 }, ptr %1, i32 0, i32 0
  %32 = load ptr, ptr %31, align 8
  %33 = getelementptr inbounds nuw { ptr, i64 }, ptr %1, i32 0, i32 1
  %34 = load i64, ptr %33, align 8
  %35 = getelementptr inbounds nuw { ptr, i64 }, ptr %2, i32 0, i32 0
  %36 = load ptr, ptr %35, align 8
  %37 = getelementptr inbounds nuw { ptr, i64 }, ptr %2, i32 0, i32 1
  %38 = load i64, ptr %37, align 8
  %39 = getelementptr inbounds nuw { ptr, i64 }, ptr %3, i32 0, i32 0
  %40 = load ptr, ptr %39, align 8
  %41 = getelementptr inbounds nuw { ptr, i64 }, ptr %3, i32 0, i32 1
  %42 = load i64, ptr %41, align 8
  call void @_ZL13test_op_slashN5vcpkg10StringViewES0_S0_(ptr %32, i64 %34, ptr %36, i64 %38, ptr %40, i64 %42)
  call void @_ZN5vcpkg10StringViewC2EPKc(ptr noundef nonnull align 8 dereferenceable(16) %4, ptr noundef @.str.91) #3
  call void @_ZN5vcpkg10StringViewC2EPKc(ptr noundef nonnull align 8 dereferenceable(16) %5, ptr noundef @.str.89) #3
  call void @_ZN5vcpkg10StringViewC2EPKc(ptr noundef nonnull align 8 dereferenceable(16) %6, ptr noundef @.str.92) #3
  %43 = getelementptr inbounds nuw { ptr, i64 }, ptr %4, i32 0, i32 0
  %44 = load ptr, ptr %43, align 8
  %45 = getelementptr inbounds nuw { ptr, i64 }, ptr %4, i32 0, i32 1
  %46 = load i64, ptr %45, align 8
  %47 = getelementptr inbounds nuw { ptr, i64 }, ptr %5, i32 0, i32 0
  %48 = load ptr, ptr %47, align 8
  %49 = getelementptr inbounds nuw { ptr, i64 }, ptr %5, i32 0, i32 1
  %50 = load i64, ptr %49, align 8
  %51 = getelementptr inbounds nuw { ptr, i64 }, ptr %6, i32 0, i32 0
  %52 = load ptr, ptr %51, align 8
  %53 = getelementptr inbounds nuw { ptr, i64 }, ptr %6, i32 0, i32 1
  %54 = load i64, ptr %53, align 8
  call void @_ZL13test_op_slashN5vcpkg10StringViewES0_S0_(ptr %44, i64 %46, ptr %48, i64 %50, ptr %52, i64 %54)
  call void @_ZN5vcpkg10StringViewC2EPKc(ptr noundef nonnull align 8 dereferenceable(16) %7, ptr noundef @.str.88) #3
  call void @_ZN5vcpkg10StringViewC2EPKc(ptr noundef nonnull align 8 dereferenceable(16) %8, ptr noundef @.str.93) #3
  call void @_ZN5vcpkg10StringViewC2EPKc(ptr noundef nonnull align 8 dereferenceable(16) %9, ptr noundef @.str.93) #3
  %55 = getelementptr inbounds nuw { ptr, i64 }, ptr %7, i32 0, i32 0
  %56 = load ptr, ptr %55, align 8
  %57 = getelementptr inbounds nuw { ptr, i64 }, ptr %7, i32 0, i32 1
  %58 = load i64, ptr %57, align 8
  %59 = getelementptr inbounds nuw { ptr, i64 }, ptr %8, i32 0, i32 0
  %60 = load ptr, ptr %59, align 8
  %61 = getelementptr inbounds nuw { ptr, i64 }, ptr %8, i32 0, i32 1
  %62 = load i64, ptr %61, align 8
  %63 = getelementptr inbounds nuw { ptr, i64 }, ptr %9, i32 0, i32 0
  %64 = load ptr, ptr %63, align 8
  %65 = getelementptr inbounds nuw { ptr, i64 }, ptr %9, i32 0, i32 1
  %66 = load i64, ptr %65, align 8
  call void @_ZL13test_op_slashN5vcpkg10StringViewES0_S0_(ptr %56, i64 %58, ptr %60, i64 %62, ptr %64, i64 %66)
  call void @_ZN5vcpkg10StringViewC2EPKc(ptr noundef nonnull align 8 dereferenceable(16) %10, ptr noundef @.str.94) #3
  call void @_ZN5vcpkg10StringViewC2EPKc(ptr noundef nonnull align 8 dereferenceable(16) %11, ptr noundef @.str.89) #3
  call void @_ZN5vcpkg10StringViewC2EPKc(ptr noundef nonnull align 8 dereferenceable(16) %12, ptr noundef @.str.95) #3
  %67 = getelementptr inbounds nuw { ptr, i64 }, ptr %10, i32 0, i32 0
  %68 = load ptr, ptr %67, align 8
  %69 = getelementptr inbounds nuw { ptr, i64 }, ptr %10, i32 0, i32 1
  %70 = load i64, ptr %69, align 8
  %71 = getelementptr inbounds nuw { ptr, i64 }, ptr %11, i32 0, i32 0
  %72 = load ptr, ptr %71, align 8
  %73 = getelementptr inbounds nuw { ptr, i64 }, ptr %11, i32 0, i32 1
  %74 = load i64, ptr %73, align 8
  %75 = getelementptr inbounds nuw { ptr, i64 }, ptr %12, i32 0, i32 0
  %76 = load ptr, ptr %75, align 8
  %77 = getelementptr inbounds nuw { ptr, i64 }, ptr %12, i32 0, i32 1
  %78 = load i64, ptr %77, align 8
  call void @_ZL13test_op_slashN5vcpkg10StringViewES0_S0_(ptr %68, i64 %70, ptr %72, i64 %74, ptr %76, i64 %78)
  call void @_ZN5vcpkg10StringViewC2EPKc(ptr noundef nonnull align 8 dereferenceable(16) %13, ptr noundef @.str.96) #3
  call void @_ZN5vcpkg10StringViewC2EPKc(ptr noundef nonnull align 8 dereferenceable(16) %14, ptr noundef @.str.89) #3
  call void @_ZN5vcpkg10StringViewC2EPKc(ptr noundef nonnull align 8 dereferenceable(16) %15, ptr noundef @.str.97) #3
  %79 = getelementptr inbounds nuw { ptr, i64 }, ptr %13, i32 0, i32 0
  %80 = load ptr, ptr %79, align 8
  %81 = getelementptr inbounds nuw { ptr, i64 }, ptr %13, i32 0, i32 1
  %82 = load i64, ptr %81, align 8
  %83 = getelementptr inbounds nuw { ptr, i64 }, ptr %14, i32 0, i32 0
  %84 = load ptr, ptr %83, align 8
  %85 = getelementptr inbounds nuw { ptr, i64 }, ptr %14, i32 0, i32 1
  %86 = load i64, ptr %85, align 8
  %87 = getelementptr inbounds nuw { ptr, i64 }, ptr %15, i32 0, i32 0
  %88 = load ptr, ptr %87, align 8
  %89 = getelementptr inbounds nuw { ptr, i64 }, ptr %15, i32 0, i32 1
  %90 = load i64, ptr %89, align 8
  call void @_ZL13test_op_slashN5vcpkg10StringViewES0_S0_(ptr %80, i64 %82, ptr %84, i64 %86, ptr %88, i64 %90)
  call void @_ZN5vcpkg10StringViewC2EPKc(ptr noundef nonnull align 8 dereferenceable(16) %16, ptr noundef @.str.96) #3
  call void @_ZN5vcpkg10StringViewC2EPKc(ptr noundef nonnull align 8 dereferenceable(16) %17, ptr noundef @.str.93) #3
  call void @_ZN5vcpkg10StringViewC2EPKc(ptr noundef nonnull align 8 dereferenceable(16) %18, ptr noundef @.str.93) #3
  %91 = getelementptr inbounds nuw { ptr, i64 }, ptr %16, i32 0, i32 0
  %92 = load ptr, ptr %91, align 8
  %93 = getelementptr inbounds nuw { ptr, i64 }, ptr %16, i32 0, i32 1
  %94 = load i64, ptr %93, align 8
  %95 = getelementptr inbounds nuw { ptr, i64 }, ptr %17, i32 0, i32 0
  %96 = load ptr, ptr %95, align 8
  %97 = getelementptr inbounds nuw { ptr, i64 }, ptr %17, i32 0, i32 1
  %98 = load i64, ptr %97, align 8
  %99 = getelementptr inbounds nuw { ptr, i64 }, ptr %18, i32 0, i32 0
  %100 = load ptr, ptr %99, align 8
  %101 = getelementptr inbounds nuw { ptr, i64 }, ptr %18, i32 0, i32 1
  %102 = load i64, ptr %101, align 8
  call void @_ZL13test_op_slashN5vcpkg10StringViewES0_S0_(ptr %92, i64 %94, ptr %96, i64 %98, ptr %100, i64 %102)
  call void @_ZN5vcpkg10StringViewC2EPKc(ptr noundef nonnull align 8 dereferenceable(16) %19, ptr noundef @.str.94) #3
  call void @_ZN5vcpkg10StringViewC2EPKc(ptr noundef nonnull align 8 dereferenceable(16) %20, ptr noundef @.str.93) #3
  call void @_ZN5vcpkg10StringViewC2EPKc(ptr noundef nonnull align 8 dereferenceable(16) %21, ptr noundef @.str.93) #3
  %103 = getelementptr inbounds nuw { ptr, i64 }, ptr %19, i32 0, i32 0
  %104 = load ptr, ptr %103, align 8
  %105 = getelementptr inbounds nuw { ptr, i64 }, ptr %19, i32 0, i32 1
  %106 = load i64, ptr %105, align 8
  %107 = getelementptr inbounds nuw { ptr, i64 }, ptr %20, i32 0, i32 0
  %108 = load ptr, ptr %107, align 8
  %109 = getelementptr inbounds nuw { ptr, i64 }, ptr %20, i32 0, i32 1
  %110 = load i64, ptr %109, align 8
  %111 = getelementptr inbounds nuw { ptr, i64 }, ptr %21, i32 0, i32 0
  %112 = load ptr, ptr %111, align 8
  %113 = getelementptr inbounds nuw { ptr, i64 }, ptr %21, i32 0, i32 1
  %114 = load i64, ptr %113, align 8
  call void @_ZL13test_op_slashN5vcpkg10StringViewES0_S0_(ptr %104, i64 %106, ptr %108, i64 %110, ptr %112, i64 %114)
  call void @_ZN5vcpkg10StringViewC2EPKc(ptr noundef nonnull align 8 dereferenceable(16) %22, ptr noundef @.str.94) #3
  call void @_ZN5vcpkg10StringViewC2EPKc(ptr noundef nonnull align 8 dereferenceable(16) %23, ptr noundef @.str.98) #3
  call void @_ZN5vcpkg10StringViewC2EPKc(ptr noundef nonnull align 8 dereferenceable(16) %24, ptr noundef @.str.99) #3
  %115 = getelementptr inbounds nuw { ptr, i64 }, ptr %22, i32 0, i32 0
  %116 = load ptr, ptr %115, align 8
  %117 = getelementptr inbounds nuw { ptr, i64 }, ptr %22, i32 0, i32 1
  %118 = load i64, ptr %117, align 8
  %119 = getelementptr inbounds nuw { ptr, i64 }, ptr %23, i32 0, i32 0
  %120 = load ptr, ptr %119, align 8
  %121 = getelementptr inbounds nuw { ptr, i64 }, ptr %23, i32 0, i32 1
  %122 = load i64, ptr %121, align 8
  %123 = getelementptr inbounds nuw { ptr, i64 }, ptr %24, i32 0, i32 0
  %124 = load ptr, ptr %123, align 8
  %125 = getelementptr inbounds nuw { ptr, i64 }, ptr %24, i32 0, i32 1
  %126 = load i64, ptr %125, align 8
  call void @_ZL13test_op_slashN5vcpkg10StringViewES0_S0_(ptr %116, i64 %118, ptr %120, i64 %122, ptr %124, i64 %126)
  call void @_ZN5vcpkg10StringViewC2EPKc(ptr noundef nonnull align 8 dereferenceable(16) %25, ptr noundef @.str.94) #3
  call void @_ZN5vcpkg10StringViewC2EPKc(ptr noundef nonnull align 8 dereferenceable(16) %26, ptr noundef @.str.100) #3
  call void @_ZN5vcpkg10StringViewC2EPKc(ptr noundef nonnull align 8 dereferenceable(16) %27, ptr noundef @.str.101) #3
  %127 = getelementptr inbounds nuw { ptr, i64 }, ptr %25, i32 0, i32 0
  %128 = load ptr, ptr %127, align 8
  %129 = getelementptr inbounds nuw { ptr, i64 }, ptr %25, i32 0, i32 1
  %130 = load i64, ptr %129, align 8
  %131 = getelementptr inbounds nuw { ptr, i64 }, ptr %26, i32 0, i32 0
  %132 = load ptr, ptr %131, align 8
  %133 = getelementptr inbounds nuw { ptr, i64 }, ptr %26, i32 0, i32 1
  %134 = load i64, ptr %133, align 8
  %135 = getelementptr inbounds nuw { ptr, i64 }, ptr %27, i32 0, i32 0
  %136 = load ptr, ptr %135, align 8
  %137 = getelementptr inbounds nuw { ptr, i64 }, ptr %27, i32 0, i32 1
  %138 = load i64, ptr %137, align 8
  call void @_ZL13test_op_slashN5vcpkg10StringViewES0_S0_(ptr %128, i64 %130, ptr %132, i64 %134, ptr %136, i64 %138)
  call void @_ZN5vcpkg10StringViewC2EPKc(ptr noundef nonnull align 8 dereferenceable(16) %28, ptr noundef @.str.94) #3
  call void @_ZN5vcpkg10StringViewC2EPKc(ptr noundef nonnull align 8 dereferenceable(16) %29, ptr noundef @.str.102) #3
  call void @_ZN5vcpkg10StringViewC2EPKc(ptr noundef nonnull align 8 dereferenceable(16) %30, ptr noundef @.str.103) #3
  %139 = getelementptr inbounds nuw { ptr, i64 }, ptr %28, i32 0, i32 0
  %140 = load ptr, ptr %139, align 8
  %141 = getelementptr inbounds nuw { ptr, i64 }, ptr %28, i32 0, i32 1
  %142 = load i64, ptr %141, align 8
  %143 = getelementptr inbounds nuw { ptr, i64 }, ptr %29, i32 0, i32 0
  %144 = load ptr, ptr %143, align 8
  %145 = getelementptr inbounds nuw { ptr, i64 }, ptr %29, i32 0, i32 1
  %146 = load i64, ptr %145, align 8
  %147 = getelementptr inbounds nuw { ptr, i64 }, ptr %30, i32 0, i32 0
  %148 = load ptr, ptr %147, align 8
  %149 = getelementptr inbounds nuw { ptr, i64 }, ptr %30, i32 0, i32 1
  %150 = load i64, ptr %149, align 8
  call void @_ZL13test_op_slashN5vcpkg10StringViewES0_S0_(ptr %140, i64 %142, ptr %144, i64 %146, ptr %148, i64 %150)
  ret void
}