; Function Attrs: mustprogress uwtable
define internal void @_ZL19C_A_T_C_H_T_E_S_T_8v() #3 {
  tail call fastcc void @_ZL13test_op_slashN5vcpkg10StringViewES0_S0_(ptr nonnull @.str.88, i64 4, ptr nonnull @.str.89, i64 3, ptr nonnull @.str.90, i64 8)
  tail call fastcc void @_ZL13test_op_slashN5vcpkg10StringViewES0_S0_(ptr nonnull @.str.91, i64 3, ptr nonnull @.str.89, i64 3, ptr nonnull @.str.92, i64 7)
  tail call fastcc void @_ZL13test_op_slashN5vcpkg10StringViewES0_S0_(ptr nonnull @.str.88, i64 4, ptr nonnull @.str.93, i64 4, ptr nonnull @.str.93, i64 4)
  tail call fastcc void @_ZL13test_op_slashN5vcpkg10StringViewES0_S0_(ptr nonnull @.str.94, i64 6, ptr nonnull @.str.89, i64 3, ptr nonnull @.str.95, i64 10)
  tail call fastcc void @_ZL13test_op_slashN5vcpkg10StringViewES0_S0_(ptr nonnull @.str.96, i64 5, ptr nonnull @.str.89, i64 3, ptr nonnull @.str.97, i64 9)
  tail call fastcc void @_ZL13test_op_slashN5vcpkg10StringViewES0_S0_(ptr nonnull @.str.96, i64 5, ptr nonnull @.str.93, i64 4, ptr nonnull @.str.93, i64 4)
  tail call fastcc void @_ZL13test_op_slashN5vcpkg10StringViewES0_S0_(ptr nonnull @.str.94, i64 6, ptr nonnull @.str.93, i64 4, ptr nonnull @.str.93, i64 4)
  tail call fastcc void @_ZL13test_op_slashN5vcpkg10StringViewES0_S0_(ptr nonnull @.str.94, i64 6, ptr nonnull @.str.98, i64 6, ptr nonnull @.str.99, i64 13)
  tail call fastcc void @_ZL13test_op_slashN5vcpkg10StringViewES0_S0_(ptr nonnull @.str.94, i64 6, ptr nonnull @.str.100, i64 5, ptr nonnull @.str.101, i64 12)
  tail call fastcc void @_ZL13test_op_slashN5vcpkg10StringViewES0_S0_(ptr nonnull @.str.94, i64 6, ptr nonnull @.str.102, i64 5, ptr nonnull @.str.103, i64 12)
  ret void
}